target datalayout = "e-m:e-p270:32:32-p271:32:32-p272:64:64-i64:64-i128:128-f80:128-n8:16:32:64-S128"
target triple = "x86_64-pc-linux-gnu"

%struct.FunctionCallInfoBaseData = type { ptr, ptr, ptr, i32, i8, i16, [0 x %struct.NullableDatum] }
%struct.NullableDatum = type { i64, i8 }
%struct.varattrib_1b = type { i8, [0 x i8] }
%struct.anon = type { i32, [0 x i8] }
%struct.varattrib_1b_e = type { i8, i8, [0 x i8] }

; Function Attrs: inlinehint nounwind uwtable
define internal i64 @BoolGetDatum(i1 noundef zeroext %0) #2 {
  %2 = alloca i8, align 1
  %3 = zext i1 %0 to i8
  store i8 %3, ptr %2, align 1
  %4 = load i8, ptr %2, align 1, !range !4, !noundef !5
  %5 = trunc i8 %4 to i1
  %6 = select i1 %5, i32 1, i32 0
  %7 = sext i32 %6 to i64
  ret i64 %7
}

; Function Attrs: inlinehint nounwind uwtable
define internal ptr @DatumGetPointer(i64 noundef %0) #2 {
  %2 = alloca i64, align 8
  store i64 %0, ptr %2, align 8
  %3 = load i64, ptr %2, align 8
  %4 = inttoptr i64 %3 to ptr
  ret ptr %4
}

; Function Attrs: nounwind uwtable
define dso_local i64 @byteanlike(ptr noundef %0) #0 {
  %2 = alloca ptr, align 8
  %3 = alloca ptr, align 8
  %4 = alloca ptr, align 8
  %5 = alloca i8, align 1
  %6 = alloca ptr, align 8
  %7 = alloca ptr, align 8
  %8 = alloca i32, align 4
  %9 = alloca i32, align 4
  store ptr %0, ptr %2, align 8
  call void @llvm.lifetime.start.p0(i64 8, ptr %3) #8
  %10 = load ptr, ptr %2, align 8
  %11 = getelementptr inbounds nuw %struct.FunctionCallInfoBaseData, ptr %10, i32 0, i32 6
  %12 = getelementptr inbounds [0 x %struct.NullableDatum], ptr %11, i64 0, i64 0
  %13 = getelementptr inbounds nuw %struct.NullableDatum, ptr %12, i32 0, i32 0
  %14 = load i64, ptr %13, align 8
  %15 = call ptr @DatumGetPointer(i64 noundef %14)
  %16 = call ptr @pg_detoast_datum_packed(ptr noundef %15)
  store ptr %16, ptr %3, align 8
  call void @llvm.lifetime.start.p0(i64 8, ptr %4) #8
  %17 = load ptr, ptr %2, align 8
  %18 = getelementptr inbounds nuw %struct.FunctionCallInfoBaseData, ptr %17, i32 0, i32 6
  %19 = getelementptr inbounds [0 x %struct.NullableDatum], ptr %18, i64 0, i64 1
  %20 = getelementptr inbounds nuw %struct.NullableDatum, ptr %19, i32 0, i32 0
  %21 = load i64, ptr %20, align 8
  %22 = call ptr @DatumGetPointer(i64 noundef %21)
  %23 = call ptr @pg_detoast_datum_packed(ptr noundef %22)
  store ptr %23, ptr %4, align 8
  call void @llvm.lifetime.start.p0(i64 1, ptr %5) #8
  call void @llvm.lifetime.start.p0(i64 8, ptr %6) #8
  call void @llvm.lifetime.start.p0(i64 8, ptr %7) #8
  call void @llvm.lifetime.start.p0(i64 4, ptr %8) #8
  call void @llvm.lifetime.start.p0(i64 4, ptr %9) #8
  %24 = load ptr, ptr %3, align 8
  %25 = getelementptr inbounds nuw %struct.varattrib_1b, ptr %24, i32 0, i32 0
  %26 = load i8, ptr %25, align 1
  %27 = zext i8 %26 to i32
  %28 = and i32 %27, 1
  %29 = icmp eq i32 %28, 1
  br i1 %29, label %30, label %34

30:                                               ; preds = %1
  %31 = load ptr, ptr %3, align 8
  %32 = getelementptr inbounds nuw %struct.varattrib_1b, ptr %31, i32 0, i32 1
  %33 = getelementptr inbounds [0 x i8], ptr %32, i64 0, i64 0
  br label %38

34:                                               ; preds = %1
  %35 = load ptr, ptr %3, align 8
  %36 = getelementptr inbounds nuw %struct.anon, ptr %35, i32 0, i32 1
  %37 = getelementptr inbounds [0 x i8], ptr %36, i64 0, i64 0
  br label %38

38:                                               ; preds = %34, %30
  %39 = phi ptr [ %33, %30 ], [ %37, %34 ]
  store ptr %39, ptr %6, align 8
  %40 = load ptr, ptr %3, align 8
  %41 = getelementptr inbounds nuw %struct.varattrib_1b, ptr %40, i32 0, i32 0
  %42 = load i8, ptr %41, align 1
  %43 = zext i8 %42 to i32
  %44 = icmp eq i32 %43, 1
  br i1 %44, label %45, label %73

45:                                               ; preds = %38
  %46 = load ptr, ptr %3, align 8
  %47 = getelementptr inbounds nuw %struct.varattrib_1b_e, ptr %46, i32 0, i32 1
  %48 = load i8, ptr %47, align 1
  %49 = zext i8 %48 to i32
  %50 = icmp eq i32 %49, 1
  br i1 %50, label %51, label %52

51:                                               ; preds = %45
  br label %69

52:                                               ; preds = %45
  %53 = load ptr, ptr %3, align 8
  %54 = getelementptr inbounds nuw %struct.varattrib_1b_e, ptr %53, i32 0, i32 1
  %55 = load i8, ptr %54, align 1
  %56 = zext i8 %55 to i32
  %57 = and i32 %56, -2
  %58 = icmp eq i32 %57, 2
  br i1 %58, label %59, label %60

59:                                               ; preds = %52
  br label %67

60:                                               ; preds = %52
  %61 = load ptr, ptr %3, align 8
  %62 = getelementptr inbounds nuw %struct.varattrib_1b_e, ptr %61, i32 0, i32 1
  %63 = load i8, ptr %62, align 1
  %64 = zext i8 %63 to i32
  %65 = icmp eq i32 %64, 18
  %66 = select i1 %65, i64 16, i64 0
  br label %67

67:                                               ; preds = %60, %59
  %68 = phi i64 [ 8, %59 ], [ %66, %60 ]
  br label %69

69:                                               ; preds = %67, %51
  %70 = phi i64 [ 8, %51 ], [ %68, %67 ]
  %71 = add i64 2, %70
  %72 = sub i64 %71, 2
  br label %99

73:                                               ; preds = %38
  %74 = load ptr, ptr %3, align 8
  %75 = getelementptr inbounds nuw %struct.varattrib_1b, ptr %74, i32 0, i32 0
  %76 = load i8, ptr %75, align 1
  %77 = zext i8 %76 to i32
  %78 = and i32 %77, 1
  %79 = icmp eq i32 %78, 1
  br i1 %79, label %80, label %89

80:                                               ; preds = %73
  %81 = load ptr, ptr %3, align 8
  %82 = getelementptr inbounds nuw %struct.varattrib_1b, ptr %81, i32 0, i32 0
  %83 = load i8, ptr %82, align 1
  %84 = zext i8 %83 to i32
  %85 = ashr i32 %84, 1
  %86 = and i32 %85, 127
  %87 = sext i32 %86 to i64
  %88 = sub i64 %87, 1
  br label %97

89:                                               ; preds = %73
  %90 = load ptr, ptr %3, align 8
  %91 = getelementptr inbounds nuw %struct.anon, ptr %90, i32 0, i32 0
  %92 = load i32, ptr %91, align 4
  %93 = lshr i32 %92, 2
  %94 = and i32 %93, 1073741823
  %95 = sub i32 %94, 4
  %96 = zext i32 %95 to i64
  br label %97

97:                                               ; preds = %89, %80
  %98 = phi i64 [ %88, %80 ], [ %96, %89 ]
  br label %99

99:                                               ; preds = %97, %69
  %100 = phi i64 [ %72, %69 ], [ %98, %97 ]
  %101 = trunc i64 %100 to i32
  store i32 %101, ptr %8, align 4
  %102 = load ptr, ptr %4, align 8
  %103 = getelementptr inbounds nuw %struct.varattrib_1b, ptr %102, i32 0, i32 0
  %104 = load i8, ptr %103, align 1
  %105 = zext i8 %104 to i32
  %106 = and i32 %105, 1
  %107 = icmp eq i32 %106, 1
  br i1 %107, label %108, label %112

108:                                              ; preds = %99
  %109 = load ptr, ptr %4, align 8
  %110 = getelementptr inbounds nuw %struct.varattrib_1b, ptr %109, i32 0, i32 1
  %111 = getelementptr inbounds [0 x i8], ptr %110, i64 0, i64 0
  br label %116

112:                                              ; preds = %99
  %113 = load ptr, ptr %4, align 8
  %114 = getelementptr inbounds nuw %struct.anon, ptr %113, i32 0, i32 1
  %115 = getelementptr inbounds [0 x i8], ptr %114, i64 0, i64 0
  br label %116

116:                                              ; preds = %112, %108
  %117 = phi ptr [ %111, %108 ], [ %115, %112 ]
  store ptr %117, ptr %7, align 8
  %118 = load ptr, ptr %4, align 8
  %119 = getelementptr inbounds nuw %struct.varattrib_1b, ptr %118, i32 0, i32 0
  %120 = load i8, ptr %119, align 1
  %121 = zext i8 %120 to i32
  %122 = icmp eq i32 %121, 1
  br i1 %122, label %123, label %151

123:                                              ; preds = %116
  %124 = load ptr, ptr %4, align 8
  %125 = getelementptr inbounds nuw %struct.varattrib_1b_e, ptr %124, i32 0, i32 1
  %126 = load i8, ptr %125, align 1
  %127 = zext i8 %126 to i32
  %128 = icmp eq i32 %127, 1
  br i1 %128, label %129, label %130

129:                                              ; preds = %123
  br label %147

130:                                              ; preds = %123
  %131 = load ptr, ptr %4, align 8
  %132 = getelementptr inbounds nuw %struct.varattrib_1b_e, ptr %131, i32 0, i32 1
  %133 = load i8, ptr %132, align 1
  %134 = zext i8 %133 to i32
  %135 = and i32 %134, -2
  %136 = icmp eq i32 %135, 2
  br i1 %136, label %137, label %138

137:                                              ; preds = %130
  br label %145

138:                                              ; preds = %130
  %139 = load ptr, ptr %4, align 8
  %140 = getelementptr inbounds nuw %struct.varattrib_1b_e, ptr %139, i32 0, i32 1
  %141 = load i8, ptr %140, align 1
  %142 = zext i8 %141 to i32
  %143 = icmp eq i32 %142, 18
  %144 = select i1 %143, i64 16, i64 0
  br label %145

145:                                              ; preds = %138, %137
  %146 = phi i64 [ 8, %137 ], [ %144, %138 ]
  br label %147

147:                                              ; preds = %145, %129
  %148 = phi i64 [ 8, %129 ], [ %146, %145 ]
  %149 = add i64 2, %148
  %150 = sub i64 %149, 2
  br label %177

151:                                              ; preds = %116
  %152 = load ptr, ptr %4, align 8
  %153 = getelementptr inbounds nuw %struct.varattrib_1b, ptr %152, i32 0, i32 0
  %154 = load i8, ptr %153, align 1
  %155 = zext i8 %154 to i32
  %156 = and i32 %155, 1
  %157 = icmp eq i32 %156, 1
  br i1 %157, label %158, label %167

158:                                              ; preds = %151
  %159 = load ptr, ptr %4, align 8
  %160 = getelementptr inbounds nuw %struct.varattrib_1b, ptr %159, i32 0, i32 0
  %161 = load i8, ptr %160, align 1
  %162 = zext i8 %161 to i32
  %163 = ashr i32 %162, 1
  %164 = and i32 %163, 127
  %165 = sext i32 %164 to i64
  %166 = sub i64 %165, 1
  br label %175

167:                                              ; preds = %151
  %168 = load ptr, ptr %4, align 8
  %169 = getelementptr inbounds nuw %struct.anon, ptr %168, i32 0, i32 0
  %170 = load i32, ptr %169, align 4
  %171 = lshr i32 %170, 2
  %172 = and i32 %171, 1073741823
  %173 = sub i32 %172, 4
  %174 = zext i32 %173 to i64
  br label %175

175:                                              ; preds = %167, %158
  %176 = phi i64 [ %166, %158 ], [ %174, %167 ]
  br label %177

177:                                              ; preds = %175, %147
  %178 = phi i64 [ %150, %147 ], [ %176, %175 ]
  %179 = trunc i64 %178 to i32
  store i32 %179, ptr %9, align 4
  %180 = load ptr, ptr %6, align 8
  %181 = load i32, ptr %8, align 4
  %182 = load ptr, ptr %7, align 8
  %183 = load i32, ptr %9, align 4
  %184 = call i32 @SB_MatchText(ptr noundef %180, i32 noundef %181, ptr noundef %182, i32 noundef %183, ptr noundef null)
  %185 = icmp ne i32 %184, 1
  %186 = zext i1 %185 to i8
  store i8 %186, ptr %5, align 1
  %187 = load i8, ptr %5, align 1, !range !4, !noundef !5
  %188 = trunc i8 %187 to i1
  %189 = call i64 @BoolGetDatum(i1 noundef zeroext %188)
  call void @llvm.lifetime.end.p0(i64 4, ptr %9) #8
  call void @llvm.lifetime.end.p0(i64 4, ptr %8) #8
  call void @llvm.lifetime.end.p0(i64 8, ptr %7) #8
  call void @llvm.lifetime.end.p0(i64 8, ptr %6) #8
  call void @llvm.lifetime.end.p0(i64 1, ptr %5) #8
  call void @llvm.lifetime.end.p0(i64 8, ptr %4) #8
  call void @llvm.lifetime.end.p0(i64 8, ptr %3) #8
  ret i64 %189
}