; Function Attrs: nounwind uwtable
define dso_local range(i64 0, 2) i64 @byteanlike(ptr noundef readonly captures(none) %0) local_unnamed_addr #0 {
  %2 = getelementptr inbounds nuw i8, ptr %0, i64 32
  %3 = load i64, ptr %2, align 8
  %4 = inttoptr i64 %3 to ptr
  %5 = tail call ptr @pg_detoast_datum_packed(ptr noundef %4) #7
  %6 = getelementptr inbounds nuw i8, ptr %0, i64 48
  %7 = load i64, ptr %6, align 8
  %8 = inttoptr i64 %7 to ptr
  %9 = tail call ptr @pg_detoast_datum_packed(ptr noundef %8) #7
  %10 = load i8, ptr %5, align 1
  %11 = zext i8 %10 to i32
  %12 = and i32 %11, 1
  %.not = icmp eq i32 %12, 0
  %13 = getelementptr inbounds nuw i8, ptr %5, i64 1
  %14 = icmp eq i8 %10, 1
  br i1 %14, label %15, label %23

15:                                               ; preds = %1
  %16 = load i8, ptr %13, align 1
  %17 = icmp eq i8 %16, 1
  %18 = and i8 %16, -2
  %19 = icmp eq i8 %18, 2
  %or.cond = or i1 %17, %19
  %20 = icmp eq i8 %16, 18
  %21 = select i1 %20, i32 16, i32 0
  %22 = select i1 %or.cond, i32 8, i32 %21
  br label %31

23:                                               ; preds = %1
  br i1 %.not, label %27, label %24

24:                                               ; preds = %23
  %25 = lshr i32 %11, 1
  %26 = add nsw i32 %25, -1
  br label %31

27:                                               ; preds = %23
  %28 = load i32, ptr %5, align 4
  %29 = lshr i32 %28, 2
  %30 = add nsw i32 %29, -4
  br label %31

31:                                               ; preds = %24, %27, %15
  %32 = phi i32 [ %22, %15 ], [ %26, %24 ], [ %30, %27 ]
  %33 = load i8, ptr %9, align 1
  %34 = zext i8 %33 to i32
  %35 = and i32 %34, 1
  %.not29 = icmp eq i32 %35, 0
  %36 = getelementptr inbounds nuw i8, ptr %9, i64 1
  %37 = icmp eq i8 %33, 1
  br i1 %37, label %38, label %46

38:                                               ; preds = %31
  %39 = load i8, ptr %36, align 1
  %40 = icmp eq i8 %39, 1
  %41 = and i8 %39, -2
  %42 = icmp eq i8 %41, 2
  %or.cond32 = or i1 %40, %42
  %43 = icmp eq i8 %39, 18
  %44 = select i1 %43, i32 16, i32 0
  %45 = select i1 %or.cond32, i32 8, i32 %44
  br label %54

46:                                               ; preds = %31
  br i1 %.not29, label %50, label %47

47:                                               ; preds = %46
  %48 = lshr i32 %34, 1
  %49 = add nsw i32 %48, -1
  br label %54

50:                                               ; preds = %46
  %51 = load i32, ptr %9, align 4
  %52 = lshr i32 %51, 2
  %53 = add nsw i32 %52, -4
  br label %54

54:                                               ; preds = %47, %50, %38
  %55 = phi i32 [ %45, %38 ], [ %49, %47 ], [ %53, %50 ]
  %56 = getelementptr inbounds nuw i8, ptr %9, i64 4
  %57 = select i1 %.not29, ptr %56, ptr %36
  %58 = getelementptr inbounds nuw i8, ptr %5, i64 4
  %59 = select i1 %.not, ptr %58, ptr %13
  %60 = tail call fastcc i32 @SB_MatchText(ptr noundef nonnull %59, i32 noundef %32, ptr noundef nonnull %57, i32 noundef %55, ptr noundef null)
  %61 = icmp ne i32 %60, 1
  %62 = zext i1 %61 to i64
  ret i64 %62
}